; Function Attrs: inlinehint nounwind uwtable
define internal fastcc range(i32 -32, 1) i32 @pmix_bfrops_base_tma_copy_pinfo(ptr noundef nonnull writeonly captures(none) %0, ptr noundef readonly captures(none) %1, ptr noundef %2) unnamed_addr #4 {
  %.not.i.i = icmp eq ptr %2, null
  br i1 %.not.i.i, label %7, label %4

4:                                                ; preds = %3
  %5 = load ptr, ptr %2, align 8, !tbaa !39
  %6 = tail call ptr %5(ptr noundef nonnull %2, i64 noundef 296) #17
  br label %pmix_tma_malloc.exit.i

7:                                                ; preds = %3
  %8 = tail call noalias dereferenceable_or_null(296) ptr @malloc(i64 noundef 296) #18
  br label %pmix_tma_malloc.exit.i

pmix_tma_malloc.exit.i:                           ; preds = %7, %4
  %.0.i.i = phi ptr [ %6, %4 ], [ %8, %7 ]
  %.not.i = icmp eq ptr %.0.i.i, null
  br i1 %.not.i, label %pmix_bfrops_base_tma_proc_info_create.exit.thread, label %9, !prof !29

9:                                                ; preds = %pmix_tma_malloc.exit.i
  tail call void @llvm.memset.p0.i64(ptr noundef nonnull align 8 dereferenceable(296) %.0.i.i, i8 0, i64 296, i1 false)
  tail call void @llvm.memcpy.p0.p0.i64(ptr noundef nonnull align 8 dereferenceable(260) %.0.i.i, ptr noundef nonnull align 8 dereferenceable(260) %1, i64 260, i1 false)
  %10 = getelementptr inbounds nuw i8, ptr %1, i64 264
  %11 = load ptr, ptr %10, align 8, !tbaa !103
  %.not = icmp eq ptr %11, null
  br i1 %.not, label %20, label %12

12:                                               ; preds = %9
  br i1 %.not.i.i, label %17, label %13

13:                                               ; preds = %12
  %14 = getelementptr inbounds nuw i8, ptr %2, i64 24
  %15 = load ptr, ptr %14, align 8, !tbaa !194
  %16 = tail call ptr %15(ptr noundef nonnull %2, ptr noundef nonnull %11) #17
  br label %pmix_tma_strdup.exit

17:                                               ; preds = %12
  %18 = tail call noalias ptr @strdup(ptr noundef nonnull %11) #17
  br label %pmix_tma_strdup.exit

pmix_tma_strdup.exit:                             ; preds = %13, %17
  %.0.i = phi ptr [ %16, %13 ], [ %18, %17 ]
  %19 = getelementptr inbounds nuw i8, ptr %.0.i.i, i64 264
  store ptr %.0.i, ptr %19, align 8, !tbaa !103
  br label %20

20:                                               ; preds = %pmix_tma_strdup.exit, %9
  %21 = getelementptr inbounds nuw i8, ptr %1, i64 272
  %22 = load ptr, ptr %21, align 8, !tbaa !105
  %.not23 = icmp eq ptr %22, null
  br i1 %.not23, label %31, label %23

23:                                               ; preds = %20
  br i1 %.not.i.i, label %28, label %24

24:                                               ; preds = %23
  %25 = getelementptr inbounds nuw i8, ptr %2, i64 24
  %26 = load ptr, ptr %25, align 8, !tbaa !194
  %27 = tail call ptr %26(ptr noundef nonnull %2, ptr noundef nonnull %22) #17
  br label %pmix_tma_strdup.exit27

28:                                               ; preds = %23
  %29 = tail call noalias ptr @strdup(ptr noundef nonnull %22) #17
  br label %pmix_tma_strdup.exit27

pmix_tma_strdup.exit27:                           ; preds = %24, %28
  %.0.i26 = phi ptr [ %27, %24 ], [ %29, %28 ]
  %30 = getelementptr inbounds nuw i8, ptr %.0.i.i, i64 272
  store ptr %.0.i26, ptr %30, align 8, !tbaa !105
  br label %31

31:                                               ; preds = %pmix_tma_strdup.exit27, %20
  %32 = getelementptr inbounds nuw i8, ptr %.0.i.i, i64 280
  %33 = getelementptr inbounds nuw i8, ptr %1, i64 280
  %34 = load i32, ptr %33, align 8
  store i32 %34, ptr %32, align 8
  %35 = getelementptr inbounds nuw i8, ptr %.0.i.i, i64 284
  %36 = getelementptr inbounds nuw i8, ptr %1, i64 284
  %37 = load i32, ptr %36, align 4
  store i32 %37, ptr %35, align 4
  %38 = getelementptr inbounds nuw i8, ptr %.0.i.i, i64 288
  %39 = getelementptr inbounds nuw i8, ptr %1, i64 288
  %40 = load i8, ptr %39, align 8
  store i8 %40, ptr %38, align 8
  store ptr %.0.i.i, ptr %0, align 8, !tbaa !199
  br label %pmix_bfrops_base_tma_proc_info_create.exit.thread

pmix_bfrops_base_tma_proc_info_create.exit.thread: ; preds = %pmix_tma_malloc.exit.i, %31
  %.0 = phi i32 [ 0, %31 ], [ -32, %pmix_tma_malloc.exit.i ]
  ret i32 %.0
}